target datalayout = "e-m:e-p270:32:32-p271:32:32-p272:64:64-i64:64-i128:128-f80:128-n8:16:32:64-S128"
target triple = "x86_64-pc-linux-gnu"

%struct._FUserData = type { ptr, ptr, ptr, ptr, ptr, ptr, ptr, ptr, ptr }

; Function Attrs: nounwind uwtable
define ptr @ipcreate_(ptr noundef %0, ptr noundef %1, ptr noundef %2, ptr noundef %3, ptr noundef %4, ptr noundef %5, ptr noundef %6, ptr noundef %7, ptr noundef %8, ptr noundef %9, ptr noundef %10, ptr noundef %11, ptr noundef %12, ptr noundef %13) #0 {
  %15 = alloca ptr, align 8
  %16 = alloca ptr, align 8
  %17 = alloca ptr, align 8
  %18 = alloca ptr, align 8
  %19 = alloca ptr, align 8
  %20 = alloca ptr, align 8
  %21 = alloca ptr, align 8
  %22 = alloca ptr, align 8
  %23 = alloca ptr, align 8
  %24 = alloca ptr, align 8
  %25 = alloca ptr, align 8
  %26 = alloca ptr, align 8
  %27 = alloca ptr, align 8
  %28 = alloca ptr, align 8
  %29 = alloca ptr, align 8
  %30 = alloca i32, align 4
  %31 = alloca i32, align 4
  %32 = alloca i32, align 4
  %33 = alloca i32, align 4
  %34 = alloca i32, align 4
  %35 = alloca ptr, align 8
  %36 = alloca i32, align 4
  store ptr %0, ptr %16, align 8, !tbaa !3
  store ptr %1, ptr %17, align 8, !tbaa !8
  store ptr %2, ptr %18, align 8, !tbaa !8
  store ptr %3, ptr %19, align 8, !tbaa !3
  store ptr %4, ptr %20, align 8, !tbaa !8
  store ptr %5, ptr %21, align 8, !tbaa !8
  store ptr %6, ptr %22, align 8, !tbaa !3
  store ptr %7, ptr %23, align 8, !tbaa !3
  store ptr %8, ptr %24, align 8, !tbaa !3
  store ptr %9, ptr %25, align 8, !tbaa !10
  store ptr %10, ptr %26, align 8, !tbaa !10
  store ptr %11, ptr %27, align 8, !tbaa !10
  store ptr %12, ptr %28, align 8, !tbaa !10
  store ptr %13, ptr %29, align 8, !tbaa !10
  call void @llvm.lifetime.start.p0(i64 4, ptr %30) #6
  %37 = load ptr, ptr %16, align 8, !tbaa !3
  %38 = load i32, ptr %37, align 4, !tbaa !11
  store i32 %38, ptr %30, align 4, !tbaa !11
  call void @llvm.lifetime.start.p0(i64 4, ptr %31) #6
  %39 = load ptr, ptr %19, align 8, !tbaa !3
  %40 = load i32, ptr %39, align 4, !tbaa !11
  store i32 %40, ptr %31, align 4, !tbaa !11
  call void @llvm.lifetime.start.p0(i64 4, ptr %32) #6
  %41 = load ptr, ptr %22, align 8, !tbaa !3
  %42 = load i32, ptr %41, align 4, !tbaa !11
  store i32 %42, ptr %32, align 4, !tbaa !11
  call void @llvm.lifetime.start.p0(i64 4, ptr %33) #6
  %43 = load ptr, ptr %23, align 8, !tbaa !3
  %44 = load i32, ptr %43, align 4, !tbaa !11
  store i32 %44, ptr %33, align 4, !tbaa !11
  call void @llvm.lifetime.start.p0(i64 4, ptr %34) #6
  %45 = load ptr, ptr %24, align 8, !tbaa !3
  %46 = load i32, ptr %45, align 4, !tbaa !11
  store i32 %46, ptr %34, align 4, !tbaa !11
  call void @llvm.lifetime.start.p0(i64 8, ptr %35) #6
  %47 = call noalias ptr @malloc(i64 noundef 72) #7
  store ptr %47, ptr %35, align 8, !tbaa !13
  %48 = load i32, ptr %30, align 4, !tbaa !11
  %49 = load ptr, ptr %17, align 8, !tbaa !8
  %50 = load ptr, ptr %18, align 8, !tbaa !8
  %51 = load i32, ptr %31, align 4, !tbaa !11
  %52 = load ptr, ptr %20, align 8, !tbaa !8
  %53 = load ptr, ptr %21, align 8, !tbaa !8
  %54 = load i32, ptr %32, align 4, !tbaa !11
  %55 = load i32, ptr %33, align 4, !tbaa !11
  %56 = load i32, ptr %34, align 4, !tbaa !11
  %57 = call ptr @CreateIpoptProblem(i32 noundef %48, ptr noundef %49, ptr noundef %50, i32 noundef %51, ptr noundef %52, ptr noundef %53, i32 noundef %54, i32 noundef %55, i32 noundef %56, ptr noundef @eval_f, ptr noundef @eval_g, ptr noundef @eval_grad_f, ptr noundef @eval_jac_g, ptr noundef @eval_h)
  %58 = load ptr, ptr %35, align 8, !tbaa !13
  %59 = getelementptr inbounds nuw %struct._FUserData, ptr %58, i32 0, i32 8
  store ptr %57, ptr %59, align 8, !tbaa !15
  %60 = load ptr, ptr %35, align 8, !tbaa !13
  %61 = getelementptr inbounds nuw %struct._FUserData, ptr %60, i32 0, i32 8
  %62 = load ptr, ptr %61, align 8, !tbaa !15
  %63 = icmp eq ptr %62, null
  br i1 %63, label %64, label %66

64:                                               ; preds = %14
  %65 = load ptr, ptr %35, align 8, !tbaa !13
  call void @free(ptr noundef %65) #6
  store ptr null, ptr %15, align 8
  store i32 1, ptr %36, align 4
  br label %85

66:                                               ; preds = %14
  %67 = load ptr, ptr %25, align 8, !tbaa !10
  %68 = load ptr, ptr %35, align 8, !tbaa !13
  %69 = getelementptr inbounds nuw %struct._FUserData, ptr %68, i32 0, i32 2
  store ptr %67, ptr %69, align 8, !tbaa !18
  %70 = load ptr, ptr %26, align 8, !tbaa !10
  %71 = load ptr, ptr %35, align 8, !tbaa !13
  %72 = getelementptr inbounds nuw %struct._FUserData, ptr %71, i32 0, i32 3
  store ptr %70, ptr %72, align 8, !tbaa !19
  %73 = load ptr, ptr %27, align 8, !tbaa !10
  %74 = load ptr, ptr %35, align 8, !tbaa !13
  %75 = getelementptr inbounds nuw %struct._FUserData, ptr %74, i32 0, i32 4
  store ptr %73, ptr %75, align 8, !tbaa !20
  %76 = load ptr, ptr %28, align 8, !tbaa !10
  %77 = load ptr, ptr %35, align 8, !tbaa !13
  %78 = getelementptr inbounds nuw %struct._FUserData, ptr %77, i32 0, i32 5
  store ptr %76, ptr %78, align 8, !tbaa !21
  %79 = load ptr, ptr %29, align 8, !tbaa !10
  %80 = load ptr, ptr %35, align 8, !tbaa !13
  %81 = getelementptr inbounds nuw %struct._FUserData, ptr %80, i32 0, i32 6
  store ptr %79, ptr %81, align 8, !tbaa !22
  %82 = load ptr, ptr %35, align 8, !tbaa !13
  %83 = getelementptr inbounds nuw %struct._FUserData, ptr %82, i32 0, i32 7
  store ptr null, ptr %83, align 8, !tbaa !23
  %84 = load ptr, ptr %35, align 8, !tbaa !13
  store ptr %84, ptr %15, align 8
  store i32 1, ptr %36, align 4
  br label %85

85:                                               ; preds = %66, %64
  call void @llvm.lifetime.end.p0(i64 8, ptr %35) #6
  call void @llvm.lifetime.end.p0(i64 4, ptr %34) #6
  call void @llvm.lifetime.end.p0(i64 4, ptr %33) #6
  call void @llvm.lifetime.end.p0(i64 4, ptr %32) #6
  call void @llvm.lifetime.end.p0(i64 4, ptr %31) #6
  call void @llvm.lifetime.end.p0(i64 4, ptr %30) #6
  %86 = load ptr, ptr %15, align 8
  ret ptr %86
}