; Function Attrs: nounwind uwtable
define noalias noundef ptr @ipcreate_(ptr noundef readonly captures(none) %0, ptr noundef %1, ptr noundef %2, ptr noundef readonly captures(none) %3, ptr noundef %4, ptr noundef %5, ptr noundef readonly captures(none) %6, ptr noundef readonly captures(none) %7, ptr noundef readonly captures(none) %8, ptr noundef %9, ptr noundef %10, ptr noundef %11, ptr noundef %12, ptr noundef %13) local_unnamed_addr #0 {
  %15 = load i32, ptr %0, align 4, !tbaa !3
  %16 = load i32, ptr %3, align 4, !tbaa !3
  %17 = load i32, ptr %6, align 4, !tbaa !3
  %18 = load i32, ptr %7, align 4, !tbaa !3
  %19 = load i32, ptr %8, align 4, !tbaa !3
  %20 = tail call noalias dereferenceable_or_null(72) ptr @malloc(i64 noundef 72) #7
  %21 = tail call ptr @CreateIpoptProblem(i32 noundef %15, ptr noundef %1, ptr noundef %2, i32 noundef %16, ptr noundef %4, ptr noundef %5, i32 noundef %17, i32 noundef %18, i32 noundef %19, ptr noundef nonnull @eval_f, ptr noundef nonnull @eval_g, ptr noundef nonnull @eval_grad_f, ptr noundef nonnull @eval_jac_g, ptr noundef nonnull @eval_h) #8
  %22 = getelementptr inbounds nuw i8, ptr %20, i64 64
  store ptr %21, ptr %22, align 8, !tbaa !7
  %23 = icmp eq ptr %21, null
  br i1 %23, label %24, label %25

24:                                               ; preds = %14
  tail call void @free(ptr noundef nonnull %20) #8
  br label %32

25:                                               ; preds = %14
  %26 = getelementptr inbounds nuw i8, ptr %20, i64 16
  store ptr %9, ptr %26, align 8, !tbaa !13
  %27 = getelementptr inbounds nuw i8, ptr %20, i64 24
  store ptr %10, ptr %27, align 8, !tbaa !14
  %28 = getelementptr inbounds nuw i8, ptr %20, i64 32
  store ptr %11, ptr %28, align 8, !tbaa !15
  %29 = getelementptr inbounds nuw i8, ptr %20, i64 40
  store ptr %12, ptr %29, align 8, !tbaa !16
  %30 = getelementptr inbounds nuw i8, ptr %20, i64 48
  store ptr %13, ptr %30, align 8, !tbaa !17
  %31 = getelementptr inbounds nuw i8, ptr %20, i64 56
  store ptr null, ptr %31, align 8, !tbaa !18
  br label %32

32:                                               ; preds = %25, %24
  %.0 = phi ptr [ null, %24 ], [ %20, %25 ]
  ret ptr %.0
}